target datalayout = "e-m:e-p270:32:32-p271:32:32-p272:64:64-i64:64-i128:128-f80:128-n8:16:32:64-S128"
target triple = "x86_64-pc-linux-gnu"

%struct.ARKodeARKStepMemRec = type { ptr, ptr, i32, i32, i32, i32, i32, i32, ptr, ptr, ptr, ptr, ptr, ptr, i32, i32, i32, i32, ptr, ptr, ptr, ptr, i32, ptr, double, double, double, double, i32, double, double, double, double, double, double, i32, i64, i32, i32, i32, ptr, ptr, ptr, ptr, ptr, ptr, i32, ptr, ptr, ptr, ptr, ptr, ptr, i32, i32, i64, i64, i64, i64, i64, ptr, ptr, i32, i32, i32, double, double, ptr, i32, ptr, ptr }

@__func__.arkStep_SetUserData = private unnamed_addr constant [20 x i8] c"arkStep_SetUserData\00", align 1

; Function Attrs: nounwind uwtable
define i32 @arkStep_SetUserData(ptr noundef %0, ptr noundef %1) #0 {
  %3 = alloca i32, align 4
  %4 = alloca ptr, align 8
  %5 = alloca ptr, align 8
  %6 = alloca ptr, align 8
  %7 = alloca i32, align 4
  %8 = alloca i32, align 4
  store ptr %0, ptr %4, align 8, !tbaa !20
  store ptr %1, ptr %5, align 8, !tbaa !3
  call void @llvm.lifetime.start.p0(i64 8, ptr %6) #4
  call void @llvm.lifetime.start.p0(i64 4, ptr %7) #4
  %9 = load ptr, ptr %4, align 8, !tbaa !20
  %10 = call i32 @arkStep_AccessStepMem(ptr noundef %9, ptr noundef @__func__.arkStep_SetUserData, ptr noundef %6)
  store i32 %10, ptr %7, align 4, !tbaa !7
  %11 = load i32, ptr %7, align 4, !tbaa !7
  %12 = icmp ne i32 %11, 0
  br i1 %12, label %13, label %15

13:                                               ; preds = %2
  %14 = load i32, ptr %7, align 4, !tbaa !7
  store i32 %14, ptr %3, align 4
  store i32 1, ptr %8, align 4
  br label %44

15:                                               ; preds = %2
  %16 = load ptr, ptr %6, align 8, !tbaa !9
  %17 = getelementptr inbounds nuw %struct.ARKodeARKStepMemRec, ptr %16, i32 0, i32 45
  %18 = load ptr, ptr %17, align 8, !tbaa !66
  %19 = icmp ne ptr %18, null
  br i1 %19, label %20, label %29

20:                                               ; preds = %15
  %21 = load ptr, ptr %4, align 8, !tbaa !20
  %22 = load ptr, ptr %5, align 8, !tbaa !3
  %23 = call i32 @arkLSSetUserData(ptr noundef %21, ptr noundef %22)
  store i32 %23, ptr %7, align 4, !tbaa !7
  %24 = load i32, ptr %7, align 4, !tbaa !7
  %25 = icmp ne i32 %24, 0
  br i1 %25, label %26, label %28

26:                                               ; preds = %20
  %27 = load i32, ptr %7, align 4, !tbaa !7
  store i32 %27, ptr %3, align 4
  store i32 1, ptr %8, align 4
  br label %44

28:                                               ; preds = %20
  br label %29

29:                                               ; preds = %28, %15
  %30 = load ptr, ptr %6, align 8, !tbaa !9
  %31 = getelementptr inbounds nuw %struct.ARKodeARKStepMemRec, ptr %30, i32 0, i32 52
  %32 = load ptr, ptr %31, align 8, !tbaa !67
  %33 = icmp ne ptr %32, null
  br i1 %33, label %34, label %43

34:                                               ; preds = %29
  %35 = load ptr, ptr %4, align 8, !tbaa !20
  %36 = load ptr, ptr %5, align 8, !tbaa !3
  %37 = call i32 @arkLSSetMassUserData(ptr noundef %35, ptr noundef %36)
  store i32 %37, ptr %7, align 4, !tbaa !7
  %38 = load i32, ptr %7, align 4, !tbaa !7
  %39 = icmp ne i32 %38, 0
  br i1 %39, label %40, label %42

40:                                               ; preds = %34
  %41 = load i32, ptr %7, align 4, !tbaa !7
  store i32 %41, ptr %3, align 4
  store i32 1, ptr %8, align 4
  br label %44

42:                                               ; preds = %34
  br label %43

43:                                               ; preds = %42, %29
  store i32 0, ptr %3, align 4
  store i32 1, ptr %8, align 4
  br label %44

44:                                               ; preds = %43, %40, %26, %13
  call void @llvm.lifetime.end.p0(i64 4, ptr %7) #4
  call void @llvm.lifetime.end.p0(i64 8, ptr %6) #4
  %45 = load i32, ptr %3, align 4
  ret i32 %45
}