; Function Attrs: nounwind uwtable
define i32 @arkStep_SetUserData(ptr noundef %0, ptr noundef %1) local_unnamed_addr #0 {
  %3 = alloca ptr, align 8
  call void @llvm.lifetime.start.p0(i64 8, ptr nonnull %3) #5
  %4 = call i32 @arkStep_AccessStepMem(ptr noundef %0, ptr noundef nonnull @__func__.arkStep_SetUserData, ptr noundef nonnull %3) #5
  %.not = icmp eq i32 %4, 0
  br i1 %.not, label %5, label %18

5:                                                ; preds = %2
  %6 = load ptr, ptr %3, align 8, !tbaa !3
  %7 = getelementptr inbounds nuw i8, ptr %6, i64 312
  %8 = load ptr, ptr %7, align 8, !tbaa !58
  %.not14 = icmp eq ptr %8, null
  br i1 %.not14, label %11, label %9

9:                                                ; preds = %5
  %10 = call i32 @arkLSSetUserData(ptr noundef %0, ptr noundef %1) #5
  %.not15 = icmp eq i32 %10, 0
  br i1 %.not15, label %._crit_edge, label %18

._crit_edge:                                      ; preds = %9
  %.pre = load ptr, ptr %3, align 8, !tbaa !3
  br label %11

11:                                               ; preds = %._crit_edge, %5
  %12 = phi ptr [ %.pre, %._crit_edge ], [ %6, %5 ]
  %13 = getelementptr inbounds nuw i8, ptr %12, i64 368
  %14 = load ptr, ptr %13, align 8, !tbaa !59
  %.not16 = icmp eq ptr %14, null
  br i1 %.not16, label %17, label %15

15:                                               ; preds = %11
  %16 = call i32 @arkLSSetMassUserData(ptr noundef %0, ptr noundef %1) #5
  %.not17 = icmp eq i32 %16, 0
  br i1 %.not17, label %17, label %18

17:                                               ; preds = %15, %11
  br label %18

18:                                               ; preds = %15, %9, %2, %17
  %.0 = phi i32 [ 0, %17 ], [ %4, %2 ], [ %10, %9 ], [ %16, %15 ]
  call void @llvm.lifetime.end.p0(i64 8, ptr nonnull %3) #5
  ret i32 %.0
}